target datalayout = "e-m:e-p270:32:32-p271:32:32-p272:64:64-i64:64-i128:128-f80:128-n8:16:32:64-S128"
target triple = "x86_64-pc-linux-gnu"

%struct.CFF_BlendRec_ = type { i8, i8, ptr, i32, i32, ptr, i32, ptr }

; Function Attrs: nounwind uwtable
define internal zeroext i8 @cff_blend_check_vector(ptr noundef %0, i32 noundef %1, i32 noundef %2, ptr noundef %3) #0 {
  %5 = alloca i8, align 1
  %6 = alloca ptr, align 8
  %7 = alloca i32, align 4
  %8 = alloca i32, align 4
  %9 = alloca ptr, align 8
  store ptr %0, ptr %6, align 8
  store i32 %1, ptr %7, align 4
  store i32 %2, ptr %8, align 4
  store ptr %3, ptr %9, align 8
  %10 = load ptr, ptr %6, align 8
  %11 = getelementptr inbounds %struct.CFF_BlendRec_, ptr %10, i32 0, i32 0
  %12 = load i8, ptr %11, align 8
  %13 = icmp ne i8 %12, 0
  br i1 %13, label %14, label %39

14:                                               ; preds = %4
  %15 = load ptr, ptr %6, align 8
  %16 = getelementptr inbounds %struct.CFF_BlendRec_, ptr %15, i32 0, i32 3
  %17 = load i32, ptr %16, align 8
  %18 = load i32, ptr %7, align 4
  %19 = icmp ne i32 %17, %18
  br i1 %19, label %39, label %20

20:                                               ; preds = %14
  %21 = load ptr, ptr %6, align 8
  %22 = getelementptr inbounds %struct.CFF_BlendRec_, ptr %21, i32 0, i32 4
  %23 = load i32, ptr %22, align 4
  %24 = load i32, ptr %8, align 4
  %25 = icmp ne i32 %23, %24
  br i1 %25, label %39, label %26

26:                                               ; preds = %20
  %27 = load i32, ptr %8, align 4
  %28 = icmp ne i32 %27, 0
  br i1 %28, label %29, label %40

29:                                               ; preds = %26
  %30 = load ptr, ptr %9, align 8
  %31 = load ptr, ptr %6, align 8
  %32 = getelementptr inbounds %struct.CFF_BlendRec_, ptr %31, i32 0, i32 5
  %33 = load ptr, ptr %32, align 8
  %34 = load i32, ptr %8, align 4
  %35 = zext i32 %34 to i64
  %36 = mul i64 %35, 8
  %37 = call i32 @memcmp(ptr noundef %30, ptr noundef %33, i64 noundef %36) #5
  %38 = icmp ne i32 %37, 0
  br i1 %38, label %39, label %40

39:                                               ; preds = %29, %20, %14, %4
  store i8 1, ptr %5, align 1
  br label %41

40:                                               ; preds = %29, %26
  store i8 0, ptr %5, align 1
  br label %41

41:                                               ; preds = %40, %39
  %42 = load i8, ptr %5, align 1
  ret i8 %42
}