; Function Attrs: mustprogress nofree nounwind willreturn memory(read, inaccessiblemem: none) uwtable
define internal zeroext range(i8 0, 2) i8 @cff_blend_check_vector(ptr nocapture noundef readonly %0, i32 noundef %1, i32 noundef %2, ptr nocapture noundef readonly %3) #12 {
  %5 = load i8, ptr %0, align 8
  %.not = icmp eq i8 %5, 0
  br i1 %.not, label %19, label %6

6:                                                ; preds = %4
  %7 = getelementptr inbounds i8, ptr %0, i64 16
  %8 = load i32, ptr %7, align 8
  %.not10 = icmp eq i32 %8, %1
  br i1 %.not10, label %9, label %19

9:                                                ; preds = %6
  %10 = getelementptr inbounds i8, ptr %0, i64 20
  %11 = load i32, ptr %10, align 4
  %.not11 = icmp eq i32 %11, %2
  br i1 %.not11, label %12, label %19

12:                                               ; preds = %9
  %.not12 = icmp eq i32 %2, 0
  br i1 %.not12, label %18, label %13

13:                                               ; preds = %12
  %14 = getelementptr inbounds i8, ptr %0, i64 24
  %15 = load ptr, ptr %14, align 8
  %16 = zext i32 %2 to i64
  %17 = shl nuw nsw i64 %16, 3
  %bcmp = tail call i32 @bcmp(ptr %3, ptr %15, i64 %17)
  %.not13 = icmp eq i32 %bcmp, 0
  br i1 %.not13, label %18, label %19

18:                                               ; preds = %13, %12
  br label %19

19:                                               ; preds = %4, %6, %9, %13, %18
  %.0 = phi i8 [ 0, %18 ], [ 1, %13 ], [ 1, %9 ], [ 1, %6 ], [ 1, %4 ]
  ret i8 %.0
}